target datalayout = "e-m:e-p270:32:32-p271:32:32-p272:64:64-i64:64-i128:128-f80:128-n8:16:32:64-S128"
target triple = "x86_64-pc-linux-gnu"

%struct.job_container_ops = type { ptr, ptr, ptr, ptr, ptr, ptr, ptr }

@g_container_context_num = internal global i32 -1, align 4
@ops = internal global ptr null, align 8

; Function Attrs: nounwind uwtable
define dso_local i32 @container_g_stepd_create(i32 noundef %0, ptr noundef %1) #0 {
  %3 = alloca i32, align 4
  %4 = alloca ptr, align 8
  %5 = alloca i32, align 4
  %6 = alloca i32, align 4
  store i32 %0, ptr %3, align 4
  store ptr %1, ptr %4, align 8
  call void @llvm.lifetime.start.p0(i64 4, ptr %5) #6
  call void @llvm.lifetime.start.p0(i64 4, ptr %6) #6
  store i32 0, ptr %6, align 4
  store i32 0, ptr %5, align 4
  br label %7

7:                                                ; preds = %26, %2
  %8 = load i32, ptr %5, align 4
  %9 = load i32, ptr @g_container_context_num, align 4
  %10 = icmp slt i32 %8, %9
  br i1 %10, label %11, label %14

11:                                               ; preds = %7
  %12 = load i32, ptr %6, align 4
  %13 = icmp eq i32 %12, 0
  br label %14

14:                                               ; preds = %11, %7
  %15 = phi i1 [ false, %7 ], [ %13, %11 ]
  br i1 %15, label %16, label %29

16:                                               ; preds = %14
  %17 = load ptr, ptr @ops, align 8
  %18 = load i32, ptr %5, align 4
  %19 = sext i32 %18 to i64
  %20 = getelementptr inbounds %struct.job_container_ops, ptr %17, i64 %19
  %21 = getelementptr inbounds nuw %struct.job_container_ops, ptr %20, i32 0, i32 3
  %22 = load ptr, ptr %21, align 8
  %23 = load i32, ptr %3, align 4
  %24 = load ptr, ptr %4, align 8
  %25 = call i32 %22(i32 noundef %23, ptr noundef %24)
  store i32 %25, ptr %6, align 4
  br label %26

26:                                               ; preds = %16
  %27 = load i32, ptr %5, align 4
  %28 = add nsw i32 %27, 1
  store i32 %28, ptr %5, align 4
  br label %7, !llvm.loop !17

29:                                               ; preds = %14
  %30 = load i32, ptr %6, align 4
  call void @llvm.lifetime.end.p0(i64 4, ptr %6) #6
  call void @llvm.lifetime.end.p0(i64 4, ptr %5) #6
  ret i32 %30
}