; Function Attrs: nounwind uwtable
define dso_local i32 @container_g_stepd_create(i32 noundef %0, ptr noundef %1) local_unnamed_addr #0 {
  %3 = load i32, ptr @g_container_context_num, align 4
  %4 = icmp sgt i32 %3, 0
  br i1 %4, label %.lr.ph, label %._crit_edge

.lr.ph:                                           ; preds = %2, %.lr.ph
  %indvars.iv = phi i64 [ %indvars.iv.next, %.lr.ph ], [ 0, %2 ]
  %5 = load ptr, ptr @ops, align 8
  %6 = getelementptr inbounds nuw %struct.job_container_ops, ptr %5, i64 %indvars.iv, i32 3
  %7 = load ptr, ptr %6, align 8
  %8 = tail call i32 %7(i32 noundef %0, ptr noundef %1) #7
  %indvars.iv.next = add nuw nsw i64 %indvars.iv, 1
  %9 = load i32, ptr @g_container_context_num, align 4
  %10 = sext i32 %9 to i64
  %11 = icmp slt i64 %indvars.iv.next, %10
  %12 = icmp eq i32 %8, 0
  %13 = select i1 %11, i1 %12, i1 false
  br i1 %13, label %.lr.ph, label %._crit_edge, !llvm.loop !15

._crit_edge:                                      ; preds = %.lr.ph, %2
  %.0.lcssa = phi i32 [ 0, %2 ], [ %8, %.lr.ph ]
  ret i32 %.0.lcssa
}